; Function Attrs: nounwind uwtable
define internal void @xts_aes_ctx_free(ptr noundef %0) #0 {
  %2 = icmp eq ptr %0, null
  br i1 %2, label %4, label %3

3:                                                ; preds = %1
  tail call void @mbedtls_aes_xts_free(ptr noundef nonnull %0) #4
  tail call void @free(ptr noundef nonnull %0) #4
  br label %4

4:                                                ; preds = %1, %3
  ret void
}